target datalayout = "e-m:e-p270:32:32-p271:32:32-p272:64:64-i64:64-i128:128-f80:128-n8:16:32:64-S128"
target triple = "x86_64-pc-linux-gnu"

%union.LWLockPadded = type { %struct.LWLock, [112 x i8] }
%struct.LWLock = type { i16, %struct.pg_atomic_uint32, %struct.proclist_head }
%struct.pg_atomic_uint32 = type { i32 }
%struct.proclist_head = type { i32, i32 }
%struct.ReplicationState = type { i16, i64, i64, i32, %struct.ConditionVariable, %struct.LWLock }
%struct.ConditionVariable = type { i8, %struct.proclist_head }
%struct.ReplicationStateOnDisk = type { i16, i64 }

@.str.1 = private unnamed_addr constant [9 x i8] c"origin.c\00", align 1
@max_replication_slots = external global i32, align 4
@replication_states = internal global ptr null, align 8
@.str.6 = private unnamed_addr constant [37 x i8] c"pg_logical/replorigin_checkpoint.tmp\00", align 1
@.str.7 = private unnamed_addr constant [33 x i8] c"pg_logical/replorigin_checkpoint\00", align 1
@.str.8 = private unnamed_addr constant [31 x i8] c"could not remove file \22%s\22: %m\00", align 1
@__func__.CheckPointReplicationOrigin = private unnamed_addr constant [28 x i8] c"CheckPointReplicationOrigin\00", align 1
@.str.9 = private unnamed_addr constant [31 x i8] c"could not create file \22%s\22: %m\00", align 1
@.str.10 = private unnamed_addr constant [33 x i8] c"could not write to file \22%s\22: %m\00", align 1
@pg_comp_crc32c = external global ptr, align 8
@MainLWLockArray = external global ptr, align 8
@.str.11 = private unnamed_addr constant [30 x i8] c"could not close file \22%s\22: %m\00", align 1

; Function Attrs: nounwind uwtable
define dso_local void @CheckPointReplicationOrigin() #0 {
  %1 = alloca ptr, align 8
  %2 = alloca ptr, align 8
  %3 = alloca i32, align 4
  %4 = alloca i32, align 4
  %5 = alloca i32, align 4
  %6 = alloca i32, align 4
  %7 = alloca i32, align 4
  %8 = alloca %struct.ReplicationStateOnDisk, align 8
  %9 = alloca ptr, align 8
  %10 = alloca i64, align 8
  call void @llvm.lifetime.start.p0(i64 8, ptr %1) #9
  store ptr @.str.6, ptr %1, align 8
  call void @llvm.lifetime.start.p0(i64 8, ptr %2) #9
  store ptr @.str.7, ptr %2, align 8
  call void @llvm.lifetime.start.p0(i64 4, ptr %3) #9
  call void @llvm.lifetime.start.p0(i64 4, ptr %4) #9
  call void @llvm.lifetime.start.p0(i64 4, ptr %5) #9
  store i32 307747550, ptr %5, align 4
  call void @llvm.lifetime.start.p0(i64 4, ptr %6) #9
  %11 = load i32, ptr @max_replication_slots, align 4
  %12 = icmp eq i32 %11, 0
  br i1 %12, label %13, label %14

13:                                               ; preds = %0
  store i32 1, ptr %7, align 4
  br label %199

14:                                               ; preds = %0
  store i32 -1, ptr %6, align 4
  %15 = load ptr, ptr %1, align 8
  %16 = call i32 @unlink(ptr noundef %15) #9
  %17 = icmp slt i32 %16, 0
  br i1 %17, label %18, label %35

18:                                               ; preds = %14
  %19 = call ptr @__errno_location() #11
  %20 = load i32, ptr %19, align 4
  %21 = icmp ne i32 %20, 2
  br i1 %21, label %22, label %35

22:                                               ; preds = %18
  br label %23

23:                                               ; preds = %22
  br i1 true, label %24, label %26

24:                                               ; preds = %23
  %25 = call zeroext i1 @errstart_cold(i32 noundef 23, ptr noundef null) #10
  br i1 %25, label %28, label %32

26:                                               ; preds = %23
  %27 = call zeroext i1 @errstart(i32 noundef 23, ptr noundef null)
  br i1 %27, label %28, label %32

28:                                               ; preds = %26, %24
  %29 = call i32 @errcode_for_file_access()
  %30 = load ptr, ptr %1, align 8
  %31 = call i32 (ptr, ...) @errmsg(ptr noundef @.str.8, ptr noundef %30)
  call void @errfinish(ptr noundef @.str.1, i32 noundef 596, ptr noundef @__func__.CheckPointReplicationOrigin)
  br label %32

32:                                               ; preds = %28, %26, %24
  unreachable

33:                                               ; No predecessors!
  br label %34

34:                                               ; preds = %33
  br label %35

35:                                               ; preds = %34, %18, %14
  %36 = load ptr, ptr %1, align 8
  %37 = call i32 @OpenTransientFile(ptr noundef %36, i32 noundef 193)
  store i32 %37, ptr %3, align 4
  %38 = load i32, ptr %3, align 4
  %39 = icmp slt i32 %38, 0
  br i1 %39, label %40, label %53

40:                                               ; preds = %35
  br label %41

41:                                               ; preds = %40
  br i1 true, label %42, label %44

42:                                               ; preds = %41
  %43 = call zeroext i1 @errstart_cold(i32 noundef 23, ptr noundef null) #10
  br i1 %43, label %46, label %50

44:                                               ; preds = %41
  %45 = call zeroext i1 @errstart(i32 noundef 23, ptr noundef null)
  br i1 %45, label %46, label %50

46:                                               ; preds = %44, %42
  %47 = call i32 @errcode_for_file_access()
  %48 = load ptr, ptr %1, align 8
  %49 = call i32 (ptr, ...) @errmsg(ptr noundef @.str.9, ptr noundef %48)
  call void @errfinish(ptr noundef @.str.1, i32 noundef 608, ptr noundef @__func__.CheckPointReplicationOrigin)
  br label %50

50:                                               ; preds = %46, %44, %42
  unreachable

51:                                               ; No predecessors!
  br label %52

52:                                               ; preds = %51
  br label %53

53:                                               ; preds = %52, %35
  %54 = call ptr @__errno_location() #11
  store i32 0, ptr %54, align 4
  %55 = load i32, ptr %3, align 4
  %56 = call i64 @write(i32 noundef %55, ptr noundef %5, i64 noundef 4)
  %57 = icmp ne i64 %56, 4
  br i1 %57, label %58, label %77

58:                                               ; preds = %53
  %59 = call ptr @__errno_location() #11
  %60 = load i32, ptr %59, align 4
  %61 = icmp eq i32 %60, 0
  br i1 %61, label %62, label %64

62:                                               ; preds = %58
  %63 = call ptr @__errno_location() #11
  store i32 28, ptr %63, align 4
  br label %64

64:                                               ; preds = %62, %58
  br label %65

65:                                               ; preds = %64
  br i1 true, label %66, label %68

66:                                               ; preds = %65
  %67 = call zeroext i1 @errstart_cold(i32 noundef 23, ptr noundef null) #10
  br i1 %67, label %70, label %74

68:                                               ; preds = %65
  %69 = call zeroext i1 @errstart(i32 noundef 23, ptr noundef null)
  br i1 %69, label %70, label %74

70:                                               ; preds = %68, %66
  %71 = call i32 @errcode_for_file_access()
  %72 = load ptr, ptr %1, align 8
  %73 = call i32 (ptr, ...) @errmsg(ptr noundef @.str.10, ptr noundef %72)
  call void @errfinish(ptr noundef @.str.1, i32 noundef 620, ptr noundef @__func__.CheckPointReplicationOrigin)
  br label %74

74:                                               ; preds = %70, %68, %66
  unreachable

75:                                               ; No predecessors!
  br label %76

76:                                               ; preds = %75
  br label %77

77:                                               ; preds = %76, %53
  %78 = load ptr, ptr @pg_comp_crc32c, align 8
  %79 = load i32, ptr %6, align 4
  %80 = call i32 %78(i32 noundef %79, ptr noundef %5, i64 noundef 4)
  store i32 %80, ptr %6, align 4
  %81 = load ptr, ptr @MainLWLockArray, align 8
  %82 = getelementptr inbounds %union.LWLockPadded, ptr %81, i64 40
  %83 = call zeroext i1 @LWLockAcquire(ptr noundef %82, i32 noundef 1)
  store i32 0, ptr %4, align 4
  br label %84

84:                                               ; preds = %147, %77
  %85 = load i32, ptr %4, align 4
  %86 = load i32, ptr @max_replication_slots, align 4
  %87 = icmp slt i32 %85, %86
  br i1 %87, label %88, label %150

88:                                               ; preds = %84
  call void @llvm.lifetime.start.p0(i64 16, ptr %8) #9
  call void @llvm.lifetime.start.p0(i64 8, ptr %9) #9
  %89 = load ptr, ptr @replication_states, align 8
  %90 = load i32, ptr %4, align 4
  %91 = sext i32 %90 to i64
  %92 = getelementptr inbounds %struct.ReplicationState, ptr %89, i64 %91
  store ptr %92, ptr %9, align 8
  call void @llvm.lifetime.start.p0(i64 8, ptr %10) #9
  %93 = load ptr, ptr %9, align 8
  %94 = getelementptr inbounds nuw %struct.ReplicationState, ptr %93, i32 0, i32 0
  %95 = load i16, ptr %94, align 8
  %96 = zext i16 %95 to i32
  %97 = icmp eq i32 %96, 0
  br i1 %97, label %98, label %99

98:                                               ; preds = %88
  store i32 10, ptr %7, align 4
  br label %144

99:                                               ; preds = %88
  call void @llvm.memset.p0.i64(ptr align 8 %8, i8 0, i64 16, i1 false)
  %100 = load ptr, ptr %9, align 8
  %101 = getelementptr inbounds nuw %struct.ReplicationState, ptr %100, i32 0, i32 5
  %102 = call zeroext i1 @LWLockAcquire(ptr noundef %101, i32 noundef 1)
  %103 = load ptr, ptr %9, align 8
  %104 = getelementptr inbounds nuw %struct.ReplicationState, ptr %103, i32 0, i32 0
  %105 = load i16, ptr %104, align 8
  %106 = getelementptr inbounds nuw %struct.ReplicationStateOnDisk, ptr %8, i32 0, i32 0
  store i16 %105, ptr %106, align 8
  %107 = load ptr, ptr %9, align 8
  %108 = getelementptr inbounds nuw %struct.ReplicationState, ptr %107, i32 0, i32 1
  %109 = load i64, ptr %108, align 8
  %110 = getelementptr inbounds nuw %struct.ReplicationStateOnDisk, ptr %8, i32 0, i32 1
  store i64 %109, ptr %110, align 8
  %111 = load ptr, ptr %9, align 8
  %112 = getelementptr inbounds nuw %struct.ReplicationState, ptr %111, i32 0, i32 2
  %113 = load i64, ptr %112, align 8
  store i64 %113, ptr %10, align 8
  %114 = load ptr, ptr %9, align 8
  %115 = getelementptr inbounds nuw %struct.ReplicationState, ptr %114, i32 0, i32 5
  call void @LWLockRelease(ptr noundef %115)
  %116 = load i64, ptr %10, align 8
  call void @XLogFlush(i64 noundef %116)
  %117 = call ptr @__errno_location() #11
  store i32 0, ptr %117, align 4
  %118 = load i32, ptr %3, align 4
  %119 = call i64 @write(i32 noundef %118, ptr noundef %8, i64 noundef 16)
  %120 = icmp ne i64 %119, 16
  br i1 %120, label %121, label %140

121:                                              ; preds = %99
  %122 = call ptr @__errno_location() #11
  %123 = load i32, ptr %122, align 4
  %124 = icmp eq i32 %123, 0
  br i1 %124, label %125, label %127

125:                                              ; preds = %121
  %126 = call ptr @__errno_location() #11
  store i32 28, ptr %126, align 4
  br label %127

127:                                              ; preds = %125, %121
  br label %128

128:                                              ; preds = %127
  br i1 true, label %129, label %131

129:                                              ; preds = %128
  %130 = call zeroext i1 @errstart_cold(i32 noundef 23, ptr noundef null) #10
  br i1 %130, label %133, label %137

131:                                              ; preds = %128
  %132 = call zeroext i1 @errstart(i32 noundef 23, ptr noundef null)
  br i1 %132, label %133, label %137

133:                                              ; preds = %131, %129
  %134 = call i32 @errcode_for_file_access()
  %135 = load ptr, ptr %1, align 8
  %136 = call i32 (ptr, ...) @errmsg(ptr noundef @.str.10, ptr noundef %135)
  call void @errfinish(ptr noundef @.str.1, i32 noundef 662, ptr noundef @__func__.CheckPointReplicationOrigin)
  br label %137

137:                                              ; preds = %133, %131, %129
  unreachable

138:                                              ; No predecessors!
  br label %139

139:                                              ; preds = %138
  br label %140

140:                                              ; preds = %139, %99
  %141 = load ptr, ptr @pg_comp_crc32c, align 8
  %142 = load i32, ptr %6, align 4
  %143 = call i32 %141(i32 noundef %142, ptr noundef %8, i64 noundef 16)
  store i32 %143, ptr %6, align 4
  store i32 0, ptr %7, align 4
  br label %144

144:                                              ; preds = %140, %98
  call void @llvm.lifetime.end.p0(i64 8, ptr %10) #9
  call void @llvm.lifetime.end.p0(i64 8, ptr %9) #9
  call void @llvm.lifetime.end.p0(i64 16, ptr %8) #9
  %145 = load i32, ptr %7, align 4
  switch i32 %145, label %202 [
    i32 0, label %146
    i32 10, label %147
  ]

146:                                              ; preds = %144
  br label %147

147:                                              ; preds = %146, %144
  %148 = load i32, ptr %4, align 4
  %149 = add i32 %148, 1
  store i32 %149, ptr %4, align 4
  br label %84, !llvm.loop !11

150:                                              ; preds = %84
  %151 = load ptr, ptr @MainLWLockArray, align 8
  %152 = getelementptr inbounds %union.LWLockPadded, ptr %151, i64 40
  call void @LWLockRelease(ptr noundef %152)
  %153 = load i32, ptr %6, align 4
  %154 = xor i32 %153, -1
  store i32 %154, ptr %6, align 4
  %155 = call ptr @__errno_location() #11
  store i32 0, ptr %155, align 4
  %156 = load i32, ptr %3, align 4
  %157 = call i64 @write(i32 noundef %156, ptr noundef %6, i64 noundef 4)
  %158 = icmp ne i64 %157, 4
  br i1 %158, label %159, label %178

159:                                              ; preds = %150
  %160 = call ptr @__errno_location() #11
  %161 = load i32, ptr %160, align 4
  %162 = icmp eq i32 %161, 0
  br i1 %162, label %163, label %165

163:                                              ; preds = %159
  %164 = call ptr @__errno_location() #11
  store i32 28, ptr %164, align 4
  br label %165

165:                                              ; preds = %163, %159
  br label %166

166:                                              ; preds = %165
  br i1 true, label %167, label %169

167:                                              ; preds = %166
  %168 = call zeroext i1 @errstart_cold(i32 noundef 23, ptr noundef null) #10
  br i1 %168, label %171, label %175

169:                                              ; preds = %166
  %170 = call zeroext i1 @errstart(i32 noundef 23, ptr noundef null)
  br i1 %170, label %171, label %175

171:                                              ; preds = %169, %167
  %172 = call i32 @errcode_for_file_access()
  %173 = load ptr, ptr %1, align 8
  %174 = call i32 (ptr, ...) @errmsg(ptr noundef @.str.10, ptr noundef %173)
  call void @errfinish(ptr noundef @.str.1, i32 noundef 681, ptr noundef @__func__.CheckPointReplicationOrigin)
  br label %175

175:                                              ; preds = %171, %169, %167
  unreachable

176:                                              ; No predecessors!
  br label %177

177:                                              ; preds = %176
  br label %178

178:                                              ; preds = %177, %150
  %179 = load i32, ptr %3, align 4
  %180 = call i32 @CloseTransientFile(i32 noundef %179)
  %181 = icmp ne i32 %180, 0
  br i1 %181, label %182, label %195

182:                                              ; preds = %178
  br label %183

183:                                              ; preds = %182
  br i1 true, label %184, label %186

184:                                              ; preds = %183
  %185 = call zeroext i1 @errstart_cold(i32 noundef 23, ptr noundef null) #10
  br i1 %185, label %188, label %192

186:                                              ; preds = %183
  %187 = call zeroext i1 @errstart(i32 noundef 23, ptr noundef null)
  br i1 %187, label %188, label %192

188:                                              ; preds = %186, %184
  %189 = call i32 @errcode_for_file_access()
  %190 = load ptr, ptr %1, align 8
  %191 = call i32 (ptr, ...) @errmsg(ptr noundef @.str.11, ptr noundef %190)
  call void @errfinish(ptr noundef @.str.1, i32 noundef 688, ptr noundef @__func__.CheckPointReplicationOrigin)
  br label %192

192:                                              ; preds = %188, %186, %184
  unreachable

193:                                              ; No predecessors!
  br label %194

194:                                              ; preds = %193
  br label %195

195:                                              ; preds = %194, %178
  %196 = load ptr, ptr %1, align 8
  %197 = load ptr, ptr %2, align 8
  %198 = call i32 @durable_rename(ptr noundef %196, ptr noundef %197, i32 noundef 23)
  store i32 0, ptr %7, align 4
  br label %199

199:                                              ; preds = %195, %13
  call void @llvm.lifetime.end.p0(i64 4, ptr %6) #9
  call void @llvm.lifetime.end.p0(i64 4, ptr %5) #9
  call void @llvm.lifetime.end.p0(i64 4, ptr %4) #9
  call void @llvm.lifetime.end.p0(i64 4, ptr %3) #9
  call void @llvm.lifetime.end.p0(i64 8, ptr %2) #9
  call void @llvm.lifetime.end.p0(i64 8, ptr %1) #9
  %200 = load i32, ptr %7, align 4
  switch i32 %200, label %202 [
    i32 0, label %201
    i32 1, label %201
  ]

201:                                              ; preds = %199, %199
  ret void

202:                                              ; preds = %199, %144
  unreachable
}