; Function Attrs: nounwind uwtable
define dso_local void @CheckPointReplicationOrigin() local_unnamed_addr #0 {
  %1 = alloca i32, align 4
  %2 = alloca i32, align 4
  %3 = alloca %struct.ReplicationStateOnDisk, align 8
  call void @llvm.lifetime.start.p0(i64 4, ptr nonnull %1) #10
  store i32 307747550, ptr %1, align 4
  call void @llvm.lifetime.start.p0(i64 4, ptr nonnull %2) #10
  %4 = load i32, ptr @max_replication_slots, align 4
  %5 = icmp eq i32 %4, 0
  br i1 %5, label %96, label %6

6:                                                ; preds = %0
  %7 = tail call i32 @unlink(ptr noundef nonnull @.str.6) #10
  %8 = icmp slt i32 %7, 0
  br i1 %8, label %9, label %16

9:                                                ; preds = %6
  %10 = tail call ptr @__errno_location() #12
  %11 = load i32, ptr %10, align 4
  %.not = icmp eq i32 %11, 2
  br i1 %.not, label %16, label %12

12:                                               ; preds = %9
  %13 = tail call zeroext i1 @errstart_cold(i32 noundef 23, ptr noundef null) #11
  tail call void @llvm.assume(i1 %13)
  %14 = tail call i32 @errcode_for_file_access() #10
  %15 = tail call i32 (ptr, ...) @errmsg(ptr noundef nonnull @.str.8, ptr noundef nonnull @.str.6) #10
  tail call void @errfinish(ptr noundef nonnull @.str.1, i32 noundef 596, ptr noundef nonnull @__func__.CheckPointReplicationOrigin) #10
  unreachable

16:                                               ; preds = %9, %6
  %17 = tail call i32 @OpenTransientFile(ptr noundef nonnull @.str.6, i32 noundef 193) #10
  %18 = icmp slt i32 %17, 0
  br i1 %18, label %19, label %23

19:                                               ; preds = %16
  %20 = tail call zeroext i1 @errstart_cold(i32 noundef 23, ptr noundef null) #11
  tail call void @llvm.assume(i1 %20)
  %21 = tail call i32 @errcode_for_file_access() #10
  %22 = tail call i32 (ptr, ...) @errmsg(ptr noundef nonnull @.str.9, ptr noundef nonnull @.str.6) #10
  tail call void @errfinish(ptr noundef nonnull @.str.1, i32 noundef 608, ptr noundef nonnull @__func__.CheckPointReplicationOrigin) #10
  unreachable

23:                                               ; preds = %16
  %24 = tail call ptr @__errno_location() #12
  store i32 0, ptr %24, align 4
  %25 = call i64 @write(i32 noundef %17, ptr noundef nonnull %1, i64 noundef 4) #10
  %.not25 = icmp eq i64 %25, 4
  br i1 %.not25, label %34, label %26

26:                                               ; preds = %23
  %27 = load i32, ptr %24, align 4
  %28 = icmp eq i32 %27, 0
  br i1 %28, label %29, label %30

29:                                               ; preds = %26
  store i32 28, ptr %24, align 4
  br label %30

30:                                               ; preds = %29, %26
  %31 = tail call zeroext i1 @errstart_cold(i32 noundef 23, ptr noundef null) #11
  tail call void @llvm.assume(i1 %31)
  %32 = tail call i32 @errcode_for_file_access() #10
  %33 = tail call i32 (ptr, ...) @errmsg(ptr noundef nonnull @.str.10, ptr noundef nonnull @.str.6) #10
  tail call void @errfinish(ptr noundef nonnull @.str.1, i32 noundef 620, ptr noundef nonnull @__func__.CheckPointReplicationOrigin) #10
  unreachable

34:                                               ; preds = %23
  %35 = load ptr, ptr @pg_comp_crc32c, align 8
  %36 = call i32 %35(i32 noundef -1, ptr noundef nonnull %1, i64 noundef 4) #10
  store i32 %36, ptr %2, align 4
  %37 = load ptr, ptr @MainLWLockArray, align 8
  %38 = getelementptr inbounds nuw i8, ptr %37, i64 5120
  %39 = call zeroext i1 @LWLockAcquire(ptr noundef nonnull %38, i32 noundef 1) #10
  %40 = load i32, ptr @max_replication_slots, align 4
  %41 = icmp sgt i32 %40, 0
  br i1 %41, label %.lr.ph, label %._crit_edge

.lr.ph:                                           ; preds = %34
  %42 = getelementptr inbounds nuw i8, ptr %3, i64 8
  %.pre39 = load ptr, ptr @replication_states, align 8
  br label %43

43:                                               ; preds = %.lr.ph, %70
  %44 = phi i32 [ %40, %.lr.ph ], [ %71, %70 ]
  %45 = phi ptr [ %.pre39, %.lr.ph ], [ %72, %70 ]
  %indvars.iv = phi i64 [ 0, %.lr.ph ], [ %indvars.iv.next, %70 ]
  %46 = phi i32 [ %36, %.lr.ph ], [ %73, %70 ]
  call void @llvm.lifetime.start.p0(i64 16, ptr nonnull %3) #10
  %47 = getelementptr inbounds nuw %struct.ReplicationState, ptr %45, i64 %indvars.iv
  %48 = load i16, ptr %47, align 8
  %49 = icmp eq i16 %48, 0
  br i1 %49, label %70, label %50

50:                                               ; preds = %43
  call void @llvm.memset.p0.i64(ptr noundef nonnull align 8 dereferenceable(16) %3, i8 0, i64 16, i1 false)
  %51 = getelementptr inbounds nuw i8, ptr %47, i64 40
  %52 = call zeroext i1 @LWLockAcquire(ptr noundef nonnull %51, i32 noundef 1) #10
  %53 = load i16, ptr %47, align 8
  store i16 %53, ptr %3, align 8
  %54 = getelementptr inbounds nuw i8, ptr %47, i64 8
  %55 = load i64, ptr %54, align 8
  store i64 %55, ptr %42, align 8
  %56 = getelementptr inbounds nuw i8, ptr %47, i64 16
  %57 = load i64, ptr %56, align 8
  call void @LWLockRelease(ptr noundef nonnull %51) #10
  call void @XLogFlush(i64 noundef %57) #10
  store i32 0, ptr %24, align 4
  %58 = call i64 @write(i32 noundef %17, ptr noundef nonnull %3, i64 noundef 16) #10
  %.not28 = icmp eq i64 %58, 16
  br i1 %.not28, label %67, label %59

59:                                               ; preds = %50
  %60 = load i32, ptr %24, align 4
  %61 = icmp eq i32 %60, 0
  br i1 %61, label %62, label %63

62:                                               ; preds = %59
  store i32 28, ptr %24, align 4
  br label %63

63:                                               ; preds = %62, %59
  %64 = call zeroext i1 @errstart_cold(i32 noundef 23, ptr noundef null) #11
  call void @llvm.assume(i1 %64)
  %65 = call i32 @errcode_for_file_access() #10
  %66 = call i32 (ptr, ...) @errmsg(ptr noundef nonnull @.str.10, ptr noundef nonnull @.str.6) #10
  call void @errfinish(ptr noundef nonnull @.str.1, i32 noundef 662, ptr noundef nonnull @__func__.CheckPointReplicationOrigin) #10
  unreachable

67:                                               ; preds = %50
  %68 = load ptr, ptr @pg_comp_crc32c, align 8
  %69 = call i32 %68(i32 noundef %46, ptr noundef nonnull %3, i64 noundef 16) #10
  %.pre = load ptr, ptr @replication_states, align 8
  %.pre40 = load i32, ptr @max_replication_slots, align 4
  br label %70

70:                                               ; preds = %43, %67
  %71 = phi i32 [ %.pre40, %67 ], [ %44, %43 ]
  %72 = phi ptr [ %.pre, %67 ], [ %45, %43 ]
  %73 = phi i32 [ %69, %67 ], [ %46, %43 ]
  call void @llvm.lifetime.end.p0(i64 16, ptr nonnull %3) #10
  %indvars.iv.next = add nuw nsw i64 %indvars.iv, 1
  %74 = sext i32 %71 to i64
  %75 = icmp slt i64 %indvars.iv.next, %74
  br i1 %75, label %43, label %._crit_edge, !llvm.loop !11

._crit_edge:                                      ; preds = %70, %34
  %.lcssa = phi i32 [ %36, %34 ], [ %73, %70 ]
  %76 = load ptr, ptr @MainLWLockArray, align 8
  %77 = getelementptr inbounds nuw i8, ptr %76, i64 5120
  call void @LWLockRelease(ptr noundef nonnull %77) #10
  %78 = xor i32 %.lcssa, -1
  store i32 %78, ptr %2, align 4
  store i32 0, ptr %24, align 4
  %79 = call i64 @write(i32 noundef %17, ptr noundef nonnull %2, i64 noundef 4) #10
  %.not26 = icmp eq i64 %79, 4
  br i1 %.not26, label %88, label %80

80:                                               ; preds = %._crit_edge
  %81 = load i32, ptr %24, align 4
  %82 = icmp eq i32 %81, 0
  br i1 %82, label %83, label %84

83:                                               ; preds = %80
  store i32 28, ptr %24, align 4
  br label %84

84:                                               ; preds = %83, %80
  %85 = call zeroext i1 @errstart_cold(i32 noundef 23, ptr noundef null) #11
  call void @llvm.assume(i1 %85)
  %86 = call i32 @errcode_for_file_access() #10
  %87 = call i32 (ptr, ...) @errmsg(ptr noundef nonnull @.str.10, ptr noundef nonnull @.str.6) #10
  call void @errfinish(ptr noundef nonnull @.str.1, i32 noundef 681, ptr noundef nonnull @__func__.CheckPointReplicationOrigin) #10
  unreachable

88:                                               ; preds = %._crit_edge
  %89 = call i32 @CloseTransientFile(i32 noundef %17) #10
  %.not27 = icmp eq i32 %89, 0
  br i1 %.not27, label %94, label %90

90:                                               ; preds = %88
  %91 = call zeroext i1 @errstart_cold(i32 noundef 23, ptr noundef null) #11
  call void @llvm.assume(i1 %91)
  %92 = call i32 @errcode_for_file_access() #10
  %93 = call i32 (ptr, ...) @errmsg(ptr noundef nonnull @.str.11, ptr noundef nonnull @.str.6) #10
  call void @errfinish(ptr noundef nonnull @.str.1, i32 noundef 688, ptr noundef nonnull @__func__.CheckPointReplicationOrigin) #10
  unreachable

94:                                               ; preds = %88
  %95 = call i32 @durable_rename(ptr noundef nonnull @.str.6, ptr noundef nonnull @.str.7, i32 noundef 23) #10
  br label %96

96:                                               ; preds = %0, %94
  call void @llvm.lifetime.end.p0(i64 4, ptr nonnull %2) #10
  call void @llvm.lifetime.end.p0(i64 4, ptr nonnull %1) #10
  ret void
}